target datalayout = "e-m:e-p270:32:32-p271:32:32-p272:64:64-i64:64-i128:128-f80:128-n8:16:32:64-S128"
target triple = "x86_64-pc-linux-gnu"

%"struct.faiss::ScalarQuantizer::SQuantizer" = type { ptr }
%"struct.faiss::(anonymous namespace)::QuantizerTemplate.3" = type { %"struct.faiss::ScalarQuantizer::SQuantizer", i64, ptr, ptr }

; Function Attrs: mustprogress uwtable
define internal void @_ZNK5faiss12_GLOBAL__N_117QuantizerTemplateINS0_9Codec6bitELb0ELi1EE13encode_vectorEPKfPh(ptr noundef nonnull align 8 dereferenceable(32) %0, ptr noundef %1, ptr noundef %2) unnamed_addr #0 align 2 {
  %4 = alloca float, align 4
  %5 = alloca ptr, align 8
  %6 = alloca i32, align 4
  %7 = alloca i32, align 4
  %8 = alloca ptr, align 8
  %9 = alloca ptr, align 8
  %10 = alloca ptr, align 8
  %11 = alloca i64, align 8
  %12 = alloca float, align 4
  store ptr %0, ptr %8, align 8
  store ptr %1, ptr %9, align 8
  store ptr %2, ptr %10, align 8
  %13 = load ptr, ptr %8, align 8
  store i64 0, ptr %11, align 8
  br label %14

14:                                               ; preds = %119, %3
  %15 = load i64, ptr %11, align 8
  %16 = getelementptr inbounds %"struct.faiss::(anonymous namespace)::QuantizerTemplate.3", ptr %13, i32 0, i32 1
  %17 = load i64, ptr %16, align 8
  %18 = icmp ult i64 %15, %17
  br i1 %18, label %19, label %122

19:                                               ; preds = %14
  store float 0.000000e+00, ptr %12, align 4
  %20 = getelementptr inbounds %"struct.faiss::(anonymous namespace)::QuantizerTemplate.3", ptr %13, i32 0, i32 3
  %21 = load ptr, ptr %20, align 8
  %22 = load i64, ptr %11, align 8
  %23 = getelementptr inbounds float, ptr %21, i64 %22
  %24 = load float, ptr %23, align 4
  %25 = fcmp une float %24, 0.000000e+00
  br i1 %25, label %26, label %52

26:                                               ; preds = %19
  %27 = load ptr, ptr %9, align 8
  %28 = load i64, ptr %11, align 8
  %29 = getelementptr inbounds float, ptr %27, i64 %28
  %30 = load float, ptr %29, align 4
  %31 = getelementptr inbounds %"struct.faiss::(anonymous namespace)::QuantizerTemplate.3", ptr %13, i32 0, i32 2
  %32 = load ptr, ptr %31, align 8
  %33 = load i64, ptr %11, align 8
  %34 = getelementptr inbounds float, ptr %32, i64 %33
  %35 = load float, ptr %34, align 4
  %36 = fsub float %30, %35
  %37 = getelementptr inbounds %"struct.faiss::(anonymous namespace)::QuantizerTemplate.3", ptr %13, i32 0, i32 3
  %38 = load ptr, ptr %37, align 8
  %39 = load i64, ptr %11, align 8
  %40 = getelementptr inbounds float, ptr %38, i64 %39
  %41 = load float, ptr %40, align 4
  %42 = fdiv float %36, %41
  store float %42, ptr %12, align 4
  %43 = load float, ptr %12, align 4
  %44 = fcmp olt float %43, 0.000000e+00
  br i1 %44, label %45, label %46

45:                                               ; preds = %26
  store float 0.000000e+00, ptr %12, align 4
  br label %46

46:                                               ; preds = %45, %26
  %47 = load float, ptr %12, align 4
  %48 = fpext float %47 to double
  %49 = fcmp ogt double %48, 1.000000e+00
  br i1 %49, label %50, label %51

50:                                               ; preds = %46
  store float 1.000000e+00, ptr %12, align 4
  br label %51

51:                                               ; preds = %50, %46
  br label %52

52:                                               ; preds = %51, %19
  %53 = load float, ptr %12, align 4
  %54 = load ptr, ptr %10, align 8
  %55 = load i64, ptr %11, align 8
  %56 = trunc i64 %55 to i32
  store float %53, ptr %4, align 4
  store ptr %54, ptr %5, align 8
  store i32 %56, ptr %6, align 4
  %57 = load float, ptr %4, align 4
  %58 = fpext float %57 to double
  %59 = fmul double %58, 6.300000e+01
  %60 = fptosi double %59 to i32
  store i32 %60, ptr %7, align 4
  %61 = load i32, ptr %6, align 4
  %62 = ashr i32 %61, 2
  %63 = mul nsw i32 %62, 3
  %64 = load ptr, ptr %5, align 8
  %65 = sext i32 %63 to i64
  %66 = getelementptr inbounds i8, ptr %64, i64 %65
  store ptr %66, ptr %5, align 8
  %67 = load i32, ptr %6, align 4
  %68 = and i32 %67, 3
  switch i32 %68, label %118 [
    i32 0, label %69
    i32 1, label %76
    i32 2, label %92
    i32 3, label %109
  ]

69:                                               ; preds = %52
  %70 = load i32, ptr %7, align 4
  %71 = load ptr, ptr %5, align 8
  %72 = load i8, ptr %71, align 1
  %73 = zext i8 %72 to i32
  %74 = or i32 %73, %70
  %75 = trunc i32 %74 to i8
  store i8 %75, ptr %71, align 1
  br label %118

76:                                               ; preds = %52
  %77 = load i32, ptr %7, align 4
  %78 = shl i32 %77, 6
  %79 = load ptr, ptr %5, align 8
  %80 = load i8, ptr %79, align 1
  %81 = zext i8 %80 to i32
  %82 = or i32 %81, %78
  %83 = trunc i32 %82 to i8
  store i8 %83, ptr %79, align 1
  %84 = load i32, ptr %7, align 4
  %85 = ashr i32 %84, 2
  %86 = load ptr, ptr %5, align 8
  %87 = getelementptr inbounds i8, ptr %86, i64 1
  %88 = load i8, ptr %87, align 1
  %89 = zext i8 %88 to i32
  %90 = or i32 %89, %85
  %91 = trunc i32 %90 to i8
  store i8 %91, ptr %87, align 1
  br label %118

92:                                               ; preds = %52
  %93 = load i32, ptr %7, align 4
  %94 = shl i32 %93, 4
  %95 = load ptr, ptr %5, align 8
  %96 = getelementptr inbounds i8, ptr %95, i64 1
  %97 = load i8, ptr %96, align 1
  %98 = zext i8 %97 to i32
  %99 = or i32 %98, %94
  %100 = trunc i32 %99 to i8
  store i8 %100, ptr %96, align 1
  %101 = load i32, ptr %7, align 4
  %102 = ashr i32 %101, 4
  %103 = load ptr, ptr %5, align 8
  %104 = getelementptr inbounds i8, ptr %103, i64 2
  %105 = load i8, ptr %104, align 1
  %106 = zext i8 %105 to i32
  %107 = or i32 %106, %102
  %108 = trunc i32 %107 to i8
  store i8 %108, ptr %104, align 1
  br label %118

109:                                              ; preds = %52
  %110 = load i32, ptr %7, align 4
  %111 = shl i32 %110, 2
  %112 = load ptr, ptr %5, align 8
  %113 = getelementptr inbounds i8, ptr %112, i64 2
  %114 = load i8, ptr %113, align 1
  %115 = zext i8 %114 to i32
  %116 = or i32 %115, %111
  %117 = trunc i32 %116 to i8
  store i8 %117, ptr %113, align 1
  br label %118

118:                                              ; preds = %109, %92, %76, %69, %52
  br label %119

119:                                              ; preds = %118
  %120 = load i64, ptr %11, align 8
  %121 = add i64 %120, 1
  store i64 %121, ptr %11, align 8
  br label %14, !llvm.loop !33

122:                                              ; preds = %14
  ret void
}