; Function Attrs: mustprogress nofree norecurse nosync nounwind memory(read, argmem: readwrite, inaccessiblemem: none) uwtable
define internal void @_ZNK5faiss12_GLOBAL__N_117QuantizerTemplateINS0_9Codec6bitELb0ELi1EE13encode_vectorEPKfPh(ptr nocapture noundef nonnull readonly align 8 dereferenceable(32) %0, ptr nocapture noundef readonly %1, ptr nocapture noundef %2) unnamed_addr #15 align 2 {
  %4 = getelementptr inbounds i8, ptr %0, i64 8
  %5 = load i64, ptr %4, align 8
  %.not = icmp eq i64 %5, 0
  br i1 %.not, label %._crit_edge, label %.lr.ph

.lr.ph:                                           ; preds = %3
  %6 = getelementptr inbounds i8, ptr %0, i64 24
  %7 = getelementptr inbounds i8, ptr %0, i64 16
  br label %8

8:                                                ; preds = %.lr.ph, %62
  %.02833 = phi i64 [ 0, %.lr.ph ], [ %63, %62 ]
  %9 = load ptr, ptr %6, align 8
  %10 = getelementptr inbounds float, ptr %9, i64 %.02833
  %11 = load float, ptr %10, align 4
  %12 = fcmp une float %11, 0.000000e+00
  br i1 %12, label %13, label %24

13:                                               ; preds = %8
  %14 = getelementptr inbounds float, ptr %1, i64 %.02833
  %15 = load float, ptr %14, align 4
  %16 = load ptr, ptr %7, align 8
  %17 = getelementptr inbounds float, ptr %16, i64 %.02833
  %18 = load float, ptr %17, align 4
  %19 = fsub float %15, %18
  %20 = fdiv float %19, %11
  %21 = fcmp olt float %20, 0.000000e+00
  %.0 = select i1 %21, float 0.000000e+00, float %20
  %22 = fcmp ogt float %.0, 1.000000e+00
  br i1 %22, label %23, label %24

23:                                               ; preds = %13
  br label %24

24:                                               ; preds = %13, %23, %8
  %.1 = phi float [ 1.000000e+00, %23 ], [ %.0, %13 ], [ 0.000000e+00, %8 ]
  %25 = trunc i64 %.02833 to i32
  %26 = fpext float %.1 to double
  %27 = fmul double %26, 6.300000e+01
  %28 = fptosi double %27 to i32
  %29 = ashr i32 %25, 2
  %30 = mul nsw i32 %29, 3
  %31 = sext i32 %30 to i64
  %32 = getelementptr inbounds i8, ptr %2, i64 %31
  %33 = and i32 %25, 3
  switch i32 %33, label %default.unreachable34 [
    i32 0, label %34
    i32 1, label %38
    i32 2, label %47
    i32 3, label %57
  ]

34:                                               ; preds = %24
  %35 = load i8, ptr %32, align 1
  %36 = trunc i32 %28 to i8
  %37 = or i8 %35, %36
  store i8 %37, ptr %32, align 1
  br label %62

38:                                               ; preds = %24
  %39 = load i8, ptr %32, align 1
  %.tr32 = trunc i32 %28 to i8
  %40 = shl i8 %.tr32, 6
  %41 = or i8 %39, %40
  store i8 %41, ptr %32, align 1
  %42 = lshr i32 %28, 2
  %43 = getelementptr inbounds i8, ptr %32, i64 1
  %44 = load i8, ptr %43, align 1
  %45 = trunc i32 %42 to i8
  %46 = or i8 %44, %45
  store i8 %46, ptr %43, align 1
  br label %62

47:                                               ; preds = %24
  %48 = getelementptr inbounds i8, ptr %32, i64 1
  %49 = load i8, ptr %48, align 1
  %.tr31 = trunc i32 %28 to i8
  %50 = shl i8 %.tr31, 4
  %51 = or i8 %49, %50
  store i8 %51, ptr %48, align 1
  %52 = lshr i32 %28, 4
  %53 = getelementptr inbounds i8, ptr %32, i64 2
  %54 = load i8, ptr %53, align 1
  %55 = trunc i32 %52 to i8
  %56 = or i8 %54, %55
  store i8 %56, ptr %53, align 1
  br label %62

57:                                               ; preds = %24
  %58 = getelementptr inbounds i8, ptr %32, i64 2
  %59 = load i8, ptr %58, align 1
  %.tr = trunc i32 %28 to i8
  %60 = shl i8 %.tr, 2
  %61 = or i8 %59, %60
  store i8 %61, ptr %58, align 1
  br label %62

default.unreachable34:                            ; preds = %24
  unreachable

62:                                               ; preds = %34, %38, %47, %57
  %63 = add nuw i64 %.02833, 1
  %64 = load i64, ptr %4, align 8
  %65 = icmp ult i64 %63, %64
  br i1 %65, label %8, label %._crit_edge, !llvm.loop !32

._crit_edge:                                      ; preds = %62, %3
  ret void
}